target datalayout = "e-m:e-p270:32:32-p271:32:32-p272:64:64-i64:64-i128:128-f80:128-n8:16:32:64-S128"
target triple = "x86_64-pc-linux-gnu"

; Function Attrs: nounwind uwtable
define internal void @vert_16x16_c(ptr noalias noundef %0, i64 noundef %1, ptr noundef %2, ptr noundef %3) #1 {
  %5 = alloca ptr, align 8
  %6 = alloca i64, align 8
  %7 = alloca ptr, align 8
  %8 = alloca ptr, align 8
  %9 = alloca ptr, align 8
  %10 = alloca ptr, align 8
  %11 = alloca i64, align 8
  %12 = alloca i64, align 8
  %13 = alloca i64, align 8
  %14 = alloca i64, align 8
  %15 = alloca i32, align 4
  store ptr %0, ptr %5, align 8, !tbaa !10
  store i64 %1, ptr %6, align 8, !tbaa !12
  store ptr %2, ptr %7, align 8, !tbaa !10
  store ptr %3, ptr %8, align 8, !tbaa !10
  call void @llvm.lifetime.start.p0(i64 8, ptr %9) #9
  %16 = load ptr, ptr %5, align 8, !tbaa !10
  store ptr %16, ptr %9, align 8, !tbaa !14
  call void @llvm.lifetime.start.p0(i64 8, ptr %10) #9
  %17 = load ptr, ptr %8, align 8, !tbaa !10
  store ptr %17, ptr %10, align 8, !tbaa !14
  call void @llvm.lifetime.start.p0(i64 8, ptr %11) #9
  %18 = load ptr, ptr %10, align 8, !tbaa !14
  %19 = getelementptr inbounds i16, ptr %18, i64 0
  %20 = load i64, ptr %19, align 8, !tbaa !16
  store i64 %20, ptr %11, align 8, !tbaa !12
  call void @llvm.lifetime.start.p0(i64 8, ptr %12) #9
  %21 = load ptr, ptr %10, align 8, !tbaa !14
  %22 = getelementptr inbounds i16, ptr %21, i64 4
  %23 = load i64, ptr %22, align 8, !tbaa !16
  store i64 %23, ptr %12, align 8, !tbaa !12
  call void @llvm.lifetime.start.p0(i64 8, ptr %13) #9
  %24 = load ptr, ptr %10, align 8, !tbaa !14
  %25 = getelementptr inbounds i16, ptr %24, i64 8
  %26 = load i64, ptr %25, align 8, !tbaa !16
  store i64 %26, ptr %13, align 8, !tbaa !12
  call void @llvm.lifetime.start.p0(i64 8, ptr %14) #9
  %27 = load ptr, ptr %10, align 8, !tbaa !14
  %28 = getelementptr inbounds i16, ptr %27, i64 12
  %29 = load i64, ptr %28, align 8, !tbaa !16
  store i64 %29, ptr %14, align 8, !tbaa !12
  call void @llvm.lifetime.start.p0(i64 4, ptr %15) #9
  %30 = load i64, ptr %6, align 8, !tbaa !12
  %31 = udiv i64 %30, 2
  store i64 %31, ptr %6, align 8, !tbaa !12
  store i32 0, ptr %15, align 4, !tbaa !19
  br label %32

32:                                               ; preds = %51, %4
  %33 = load i32, ptr %15, align 4, !tbaa !19
  %34 = icmp slt i32 %33, 16
  br i1 %34, label %35, label %54

35:                                               ; preds = %32
  %36 = load i64, ptr %11, align 8, !tbaa !12
  %37 = load ptr, ptr %9, align 8, !tbaa !14
  %38 = getelementptr inbounds i16, ptr %37, i64 0
  store i64 %36, ptr %38, align 8, !tbaa !16
  %39 = load i64, ptr %12, align 8, !tbaa !12
  %40 = load ptr, ptr %9, align 8, !tbaa !14
  %41 = getelementptr inbounds i16, ptr %40, i64 4
  store i64 %39, ptr %41, align 8, !tbaa !16
  %42 = load i64, ptr %13, align 8, !tbaa !12
  %43 = load ptr, ptr %9, align 8, !tbaa !14
  %44 = getelementptr inbounds i16, ptr %43, i64 8
  store i64 %42, ptr %44, align 8, !tbaa !16
  %45 = load i64, ptr %14, align 8, !tbaa !12
  %46 = load ptr, ptr %9, align 8, !tbaa !14
  %47 = getelementptr inbounds i16, ptr %46, i64 12
  store i64 %45, ptr %47, align 8, !tbaa !16
  %48 = load i64, ptr %6, align 8, !tbaa !12
  %49 = load ptr, ptr %9, align 8, !tbaa !14
  %50 = getelementptr inbounds i16, ptr %49, i64 %48
  store ptr %50, ptr %9, align 8, !tbaa !14
  br label %51

51:                                               ; preds = %35
  %52 = load i32, ptr %15, align 4, !tbaa !19
  %53 = add nsw i32 %52, 1
  store i32 %53, ptr %15, align 4, !tbaa !19
  br label %32, !llvm.loop !46

54:                                               ; preds = %32
  call void @llvm.lifetime.end.p0(i64 4, ptr %15) #9
  call void @llvm.lifetime.end.p0(i64 8, ptr %14) #9
  call void @llvm.lifetime.end.p0(i64 8, ptr %13) #9
  call void @llvm.lifetime.end.p0(i64 8, ptr %12) #9
  call void @llvm.lifetime.end.p0(i64 8, ptr %11) #9
  call void @llvm.lifetime.end.p0(i64 8, ptr %10) #9
  call void @llvm.lifetime.end.p0(i64 8, ptr %9) #9
  ret void
}