; Function Attrs: nofree norecurse nosync nounwind memory(argmem: readwrite) uwtable
define internal void @vert_16x16_c(ptr noalias noundef writeonly captures(none) %0, i64 noundef %1, ptr readnone captures(none) %2, ptr noundef readonly captures(none) %3) #2 {
  %5 = load i64, ptr %3, align 8, !tbaa !8
  %6 = getelementptr inbounds nuw i8, ptr %3, i64 8
  %7 = load i64, ptr %6, align 8, !tbaa !8
  %8 = getelementptr inbounds nuw i8, ptr %3, i64 16
  %9 = load i64, ptr %8, align 8, !tbaa !8
  %10 = getelementptr inbounds nuw i8, ptr %3, i64 24
  %11 = load i64, ptr %10, align 8, !tbaa !8
  %12 = lshr i64 %1, 1
  br label %13

13:                                               ; preds = %4, %13
  %.020 = phi i32 [ 0, %4 ], [ %18, %13 ]
  %.01819 = phi ptr [ %0, %4 ], [ %17, %13 ]
  store i64 %5, ptr %.01819, align 8, !tbaa !8
  %14 = getelementptr inbounds nuw i8, ptr %.01819, i64 8
  store i64 %7, ptr %14, align 8, !tbaa !8
  %15 = getelementptr inbounds nuw i8, ptr %.01819, i64 16
  store i64 %9, ptr %15, align 8, !tbaa !8
  %16 = getelementptr inbounds nuw i8, ptr %.01819, i64 24
  store i64 %11, ptr %16, align 8, !tbaa !8
  %17 = getelementptr inbounds nuw i16, ptr %.01819, i64 %12
  %18 = add nuw nsw i32 %.020, 1
  %exitcond.not = icmp eq i32 %18, 16
  br i1 %exitcond.not, label %19, label %13, !llvm.loop !37

19:                                               ; preds = %13
  ret void
}